; ModuleID = '61/663.c'
source_filename = "61/663.c"
target datalayout = "e-m:e-p270:32:32-p271:32:32-p272:64:64-i64:64-f80:128-n8:16:32:64-S128"
target triple = "x86_64-pc-linux-gnu"

@.str = private unnamed_addr constant [3 x i8] c"%d\00", align 1
@.str.1 = private unnamed_addr constant [4 x i8] c"%d\0A\00", align 1

; Function Attrs: noinline nounwind uwtable
define dso_local i32 @main() #0 {
  %1 = alloca i32, align 4
  %2 = alloca i32, align 4
  %3 = alloca i32, align 4
  %4 = alloca i32, align 4
  %5 = alloca i32, align 4
  %6 = alloca i32, align 4
  %7 = alloca i32, align 4
  %8 = alloca i32, align 4
  %9 = alloca i32, align 4
  store i32 0, i32* %1, align 4
  %10 = call i32 (i8*, ...) @__isoc99_scanf(i8* getelementptr inbounds ([3 x i8], [3 x i8]* @.str, i64 0, i64 0), i32* %2)
  store i32 0, i32* %4, align 4
  br label %11

11:                                               ; preds = %46, %0
  %12 = load i32, i32* %4, align 4
  %13 = load i32, i32* %2, align 4
  %14 = icmp slt i32 %12, %13
  br i1 %14, label %15, label %49

15:                                               ; preds = %11
  %16 = call i32 (i8*, ...) @__isoc99_scanf(i8* getelementptr inbounds ([3 x i8], [3 x i8]* @.str, i64 0, i64 0), i32* %3)
  store i32 1, i32* %5, align 4
  store i32 1, i32* %6, align 4
  %17 = load i32, i32* %3, align 4
  %18 = icmp eq i32 %17, 1
  br i1 %18, label %19, label %21

19:                                               ; preds = %15
  %20 = load i32, i32* %5, align 4
  store i32 %20, i32* %8, align 4
  br label %43

21:                                               ; preds = %15
  %22 = load i32, i32* %3, align 4
  %23 = icmp eq i32 %22, 2
  br i1 %23, label %24, label %26

24:                                               ; preds = %21
  %25 = load i32, i32* %6, align 4
  store i32 %25, i32* %8, align 4
  br label %42

26:                                               ; preds = %21
  store i32 2, i32* %8, align 4
  store i32 1, i32* %7, align 4
  br label %27

27:                                               ; preds = %38, %26
  %28 = load i32, i32* %7, align 4
  %29 = load i32, i32* %3, align 4
  %30 = sub nsw i32 %29, 2
  %31 = icmp slt i32 %28, %30
  br i1 %31, label %32, label %41

32:                                               ; preds = %27
  %33 = load i32, i32* %6, align 4
  store i32 %33, i32* %9, align 4
  %34 = load i32, i32* %8, align 4
  store i32 %34, i32* %6, align 4
  %35 = load i32, i32* %9, align 4
  %36 = load i32, i32* %8, align 4
  %37 = add nsw i32 %36, %35
  store i32 %37, i32* %8, align 4
  br label %38

38:                                               ; preds = %32
  %39 = load i32, i32* %7, align 4
  %40 = add nsw i32 %39, 1
  store i32 %40, i32* %7, align 4
  br label %27

41:                                               ; preds = %27
  br label %42

42:                                               ; preds = %41, %24
  br label %43

43:                                               ; preds = %42, %19
  %44 = load i32, i32* %8, align 4
  %45 = call i32 (i8*, ...) @printf(i8* getelementptr inbounds ([4 x i8], [4 x i8]* @.str.1, i64 0, i64 0), i32 %44)
  br label %46

46:                                               ; preds = %43
  %47 = load i32, i32* %4, align 4
  %48 = add nsw i32 %47, 1
  store i32 %48, i32* %4, align 4
  br label %11

49:                                               ; preds = %11
  ret i32 0
}

declare dso_local i32 @__isoc99_scanf(i8*, ...) #1

declare dso_local i32 @printf(i8*, ...) #1


!llvm.module.flags = !{!0}
!llvm.ident = !{!1}

!0 = !{i32 1, !"wchar_size", i32 4}
!1 = !{!"clang version 10.0.0-4ubuntu1 "}
